target datalayout = "e-m:e-p270:32:32-p271:32:32-p272:64:64-i64:64-i128:128-f80:128-n8:16:32:64-S128"
target triple = "x86_64-pc-linux-gnu"

%"class.zmq::msg_t" = type { %union.anon }
%union.anon = type { %struct.anon }
%struct.anon = type { ptr, [34 x i8], i8, i8, i32, %"union.zmq::msg_t::group_t" }
%"union.zmq::msg_t::group_t" = type { %struct.anon.1 }
%struct.anon.1 = type { i8, ptr }
%struct.anon.0 = type { i8, [15 x i8] }
%"class.zmq::atomic_counter_t" = type { %"struct.std::atomic", [4 x i8] }
%"struct.std::atomic" = type { %"struct.std::__atomic_base" }
%"struct.std::__atomic_base" = type { i32 }
%"struct.zmq::msg_t::long_group_t" = type { [256 x i8], %"class.zmq::atomic_counter_t" }

; Function Attrs: noinline noreturn nounwind uwtable
define linkonce_odr hidden void @__clang_call_terminate(ptr noundef %0) #13 comdat {
  %2 = call ptr @__cxa_begin_catch(ptr %0) #14
  call void @_ZSt9terminatev() #19
  unreachable
}

; Function Attrs: mustprogress nounwind uwtable
define linkonce_odr noundef i32 @_ZStanSt12memory_orderSt23__memory_order_modifier(i32 noundef %0, i32 noundef %1) #0 comdat {
  %3 = alloca i32, align 4
  %4 = alloca i32, align 4
  store i32 %0, ptr %3, align 4, !tbaa !38
  store i32 %1, ptr %4, align 4, !tbaa !74
  %5 = load i32, ptr %3, align 4, !tbaa !38
  %6 = load i32, ptr %4, align 4, !tbaa !74
  %7 = and i32 %5, %6
  ret i32 %7
}

; Function Attrs: alwaysinline mustprogress nounwind uwtable
define linkonce_odr void @_ZNSt13__atomic_baseIjE5storeEjSt12memory_order(ptr noundef nonnull align 4 dereferenceable(4) %0, i32 noundef %1, i32 noundef %2) #12 comdat align 2 personality ptr @__gxx_personality_v0 {
  %4 = alloca ptr, align 8
  %5 = alloca i32, align 4
  %6 = alloca i32, align 4
  %7 = alloca i32, align 4
  %8 = alloca i32, align 4
  store ptr %0, ptr %4, align 8, !tbaa !35
  store i32 %1, ptr %5, align 4, !tbaa !14
  store i32 %2, ptr %6, align 4, !tbaa !38
  %9 = load ptr, ptr %4, align 8
  call void @llvm.lifetime.start.p0(i64 4, ptr %7) #14
  %10 = load i32, ptr %6, align 4, !tbaa !38
  %11 = invoke noundef i32 @_ZStanSt12memory_orderSt23__memory_order_modifier(i32 noundef %10, i32 noundef 65535)
          to label %12 unwind label %32

12:                                               ; preds = %3
  store i32 %11, ptr %7, align 4, !tbaa !38
  br label %13

13:                                               ; preds = %12
  br label %14

14:                                               ; preds = %13
  br label %15

15:                                               ; preds = %14
  br label %16

16:                                               ; preds = %15
  br label %17

17:                                               ; preds = %16
  br label %18

18:                                               ; preds = %17
  br label %19

19:                                               ; preds = %18
  br label %20

20:                                               ; preds = %19
  br label %21

21:                                               ; preds = %20
  %22 = getelementptr inbounds nuw %"struct.std::__atomic_base", ptr %9, i32 0, i32 0
  %23 = load i32, ptr %6, align 4, !tbaa !38
  %24 = load i32, ptr %5, align 4, !tbaa !14
  store i32 %24, ptr %8, align 4, !tbaa !14
  switch i32 %23, label %25 [
    i32 3, label %27
    i32 5, label %29
  ]

25:                                               ; preds = %21
  %26 = load i32, ptr %8, align 4
  store atomic i32 %26, ptr %22 monotonic, align 4
  br label %31

27:                                               ; preds = %21
  %28 = load i32, ptr %8, align 4
  store atomic i32 %28, ptr %22 release, align 4
  br label %31

29:                                               ; preds = %21
  %30 = load i32, ptr %8, align 4
  store atomic i32 %30, ptr %22 seq_cst, align 4
  br label %31

31:                                               ; preds = %29, %27, %25
  call void @llvm.lifetime.end.p0(i64 4, ptr %7) #14
  ret void

32:                                               ; preds = %3
  %33 = landingpad { ptr, i32 }
          catch ptr null
  %34 = extractvalue { ptr, i32 } %33, 0
  call void @__clang_call_terminate(ptr %34) #19
  unreachable
}

; Function Attrs: mustprogress nounwind uwtable
define linkonce_odr void @_ZNSt13__atomic_baseIjEC2Ej(ptr noundef nonnull align 4 dereferenceable(4) %0, i32 noundef %1) unnamed_addr #0 comdat align 2 {
  %3 = alloca ptr, align 8
  %4 = alloca i32, align 4
  store ptr %0, ptr %3, align 8, !tbaa !35
  store i32 %1, ptr %4, align 4, !tbaa !14
  %5 = load ptr, ptr %3, align 8
  %6 = getelementptr inbounds nuw %"struct.std::__atomic_base", ptr %5, i32 0, i32 0
  %7 = load i32, ptr %4, align 4, !tbaa !14
  store i32 %7, ptr %6, align 4, !tbaa !37
  ret void
}

; Function Attrs: mustprogress nounwind uwtable
define linkonce_odr noundef i32 @_ZNSt13__atomic_baseIjEaSEj(ptr noundef nonnull align 4 dereferenceable(4) %0, i32 noundef %1) #0 comdat align 2 {
  %3 = alloca ptr, align 8
  %4 = alloca i32, align 4
  store ptr %0, ptr %3, align 8, !tbaa !35
  store i32 %1, ptr %4, align 4, !tbaa !14
  %5 = load ptr, ptr %3, align 8
  %6 = load i32, ptr %4, align 4, !tbaa !14
  call void @_ZNSt13__atomic_baseIjE5storeEjSt12memory_order(ptr noundef nonnull align 4 dereferenceable(4) %5, i32 noundef %6, i32 noundef 5) #14
  %7 = load i32, ptr %4, align 4, !tbaa !14
  ret i32 %7
}

; Function Attrs: mustprogress nounwind uwtable
define linkonce_odr void @_ZNSt6atomicIjEC2Ej(ptr noundef nonnull align 4 dereferenceable(4) %0, i32 noundef %1) unnamed_addr #0 comdat align 2 {
  %3 = alloca ptr, align 8
  %4 = alloca i32, align 4
  store ptr %0, ptr %3, align 8, !tbaa !33
  store i32 %1, ptr %4, align 4, !tbaa !14
  %5 = load ptr, ptr %3, align 8
  %6 = load i32, ptr %4, align 4, !tbaa !14
  call void @_ZNSt13__atomic_baseIjEC2Ej(ptr noundef nonnull align 4 dereferenceable(4) %5, i32 noundef %6) #14
  ret void
}

; Function Attrs: mustprogress nounwind uwtable
define linkonce_odr void @_ZN3zmq16atomic_counter_t3setEj(ptr noundef nonnull align 8 dereferenceable(4) %0, i32 noundef %1) #0 comdat align 2 {
  %3 = alloca ptr, align 8
  %4 = alloca i32, align 4
  store ptr %0, ptr %3, align 8, !tbaa !26
  store i32 %1, ptr %4, align 4, !tbaa !14
  %5 = load ptr, ptr %3, align 8
  %6 = load i32, ptr %4, align 4, !tbaa !14
  %7 = getelementptr inbounds nuw %"class.zmq::atomic_counter_t", ptr %5, i32 0, i32 0
  %8 = call noundef i32 @_ZNSt13__atomic_baseIjEaSEj(ptr noundef nonnull align 4 dereferenceable(4) %7, i32 noundef %6) #14
  ret void
}

; Function Attrs: mustprogress nounwind uwtable
define linkonce_odr void @_ZN3zmq16atomic_counter_tC2Ej(ptr noundef nonnull align 8 dereferenceable(4) %0, i32 noundef %1) unnamed_addr #0 comdat align 2 {
  %3 = alloca ptr, align 8
  %4 = alloca i32, align 4
  store ptr %0, ptr %3, align 8, !tbaa !26
  store i32 %1, ptr %4, align 4, !tbaa !14
  %5 = load ptr, ptr %3, align 8
  %6 = getelementptr inbounds nuw %"class.zmq::atomic_counter_t", ptr %5, i32 0, i32 0
  %7 = load i32, ptr %4, align 4, !tbaa !14
  call void @_ZNSt6atomicIjEC2Ej(ptr noundef nonnull align 4 dereferenceable(4) %6, i32 noundef %7) #14
  ret void
}

; Function Attrs: mustprogress nounwind uwtable
define noundef i32 @_ZN3zmq5msg_t9set_groupEPKcm(ptr noundef nonnull align 8 dereferenceable(64) %0, ptr noundef %1, i64 noundef %2) #0 align 2 {
  %4 = alloca i32, align 4
  %5 = alloca ptr, align 8
  %6 = alloca ptr, align 8
  %7 = alloca i64, align 8
  store ptr %0, ptr %5, align 8, !tbaa !3
  store ptr %1, ptr %6, align 8, !tbaa !28
  store i64 %2, ptr %7, align 8, !tbaa !10
  %8 = load ptr, ptr %5, align 8
  %9 = load i64, ptr %7, align 8, !tbaa !10
  %10 = icmp ugt i64 %9, 255
  br i1 %10, label %11, label %13

11:                                               ; preds = %3
  %12 = call ptr @__errno_location() #16
  store i32 22, ptr %12, align 4, !tbaa !14
  store i32 -1, ptr %4, align 4
  br label %64

13:                                               ; preds = %3
  %14 = load i64, ptr %7, align 8, !tbaa !10
  %15 = icmp ugt i64 %14, 14
  br i1 %15, label %16, label %50

16:                                               ; preds = %13
  %17 = getelementptr inbounds nuw %"class.zmq::msg_t", ptr %8, i32 0, i32 0
  %18 = getelementptr inbounds nuw %struct.anon, ptr %17, i32 0, i32 5
  %19 = getelementptr inbounds nuw %struct.anon.1, ptr %18, i32 0, i32 0
  store i8 1, ptr %19, align 8, !tbaa !8
  %20 = call noalias ptr @malloc(i64 noundef 264) #15
  %21 = getelementptr inbounds nuw %"class.zmq::msg_t", ptr %8, i32 0, i32 0
  %22 = getelementptr inbounds nuw %struct.anon, ptr %21, i32 0, i32 5
  %23 = getelementptr inbounds nuw %struct.anon.1, ptr %22, i32 0, i32 1
  store ptr %20, ptr %23, align 8, !tbaa !8
  %24 = getelementptr inbounds nuw %"class.zmq::msg_t", ptr %8, i32 0, i32 0
  %25 = getelementptr inbounds nuw %struct.anon, ptr %24, i32 0, i32 5
  %26 = getelementptr inbounds nuw %struct.anon.1, ptr %25, i32 0, i32 1
  %27 = load ptr, ptr %26, align 8, !tbaa !8
  %28 = getelementptr inbounds nuw %"struct.zmq::msg_t::long_group_t", ptr %27, i32 0, i32 1
  call void @_ZN3zmq16atomic_counter_tC2Ej(ptr noundef nonnull align 8 dereferenceable(4) %28, i32 noundef 0) #14
  %29 = getelementptr inbounds nuw %"class.zmq::msg_t", ptr %8, i32 0, i32 0
  %30 = getelementptr inbounds nuw %struct.anon, ptr %29, i32 0, i32 5
  %31 = getelementptr inbounds nuw %struct.anon.1, ptr %30, i32 0, i32 1
  %32 = load ptr, ptr %31, align 8, !tbaa !8
  %33 = getelementptr inbounds nuw %"struct.zmq::msg_t::long_group_t", ptr %32, i32 0, i32 1
  call void @_ZN3zmq16atomic_counter_t3setEj(ptr noundef nonnull align 8 dereferenceable(4) %33, i32 noundef 1) #14
  %34 = getelementptr inbounds nuw %"class.zmq::msg_t", ptr %8, i32 0, i32 0
  %35 = getelementptr inbounds nuw %struct.anon, ptr %34, i32 0, i32 5
  %36 = getelementptr inbounds nuw %struct.anon.1, ptr %35, i32 0, i32 1
  %37 = load ptr, ptr %36, align 8, !tbaa !8
  %38 = getelementptr inbounds nuw %"struct.zmq::msg_t::long_group_t", ptr %37, i32 0, i32 0
  %39 = getelementptr inbounds [256 x i8], ptr %38, i64 0, i64 0
  %40 = load ptr, ptr %6, align 8, !tbaa !28
  %41 = load i64, ptr %7, align 8, !tbaa !10
  %42 = call ptr @strncpy(ptr noundef %39, ptr noundef %40, i64 noundef %41) #14
  %43 = getelementptr inbounds nuw %"class.zmq::msg_t", ptr %8, i32 0, i32 0
  %44 = getelementptr inbounds nuw %struct.anon, ptr %43, i32 0, i32 5
  %45 = getelementptr inbounds nuw %struct.anon.1, ptr %44, i32 0, i32 1
  %46 = load ptr, ptr %45, align 8, !tbaa !8
  %47 = getelementptr inbounds nuw %"struct.zmq::msg_t::long_group_t", ptr %46, i32 0, i32 0
  %48 = load i64, ptr %7, align 8, !tbaa !10
  %49 = getelementptr inbounds nuw [256 x i8], ptr %47, i64 0, i64 %48
  store i8 0, ptr %49, align 1, !tbaa !8
  br label %63

50:                                               ; preds = %13
  %51 = getelementptr inbounds nuw %"class.zmq::msg_t", ptr %8, i32 0, i32 0
  %52 = getelementptr inbounds nuw %struct.anon, ptr %51, i32 0, i32 5
  %53 = getelementptr inbounds nuw %struct.anon.0, ptr %52, i32 0, i32 1
  %54 = getelementptr inbounds [15 x i8], ptr %53, i64 0, i64 0
  %55 = load ptr, ptr %6, align 8, !tbaa !28
  %56 = load i64, ptr %7, align 8, !tbaa !10
  %57 = call ptr @strncpy(ptr noundef %54, ptr noundef %55, i64 noundef %56) #14
  %58 = getelementptr inbounds nuw %"class.zmq::msg_t", ptr %8, i32 0, i32 0
  %59 = getelementptr inbounds nuw %struct.anon, ptr %58, i32 0, i32 5
  %60 = getelementptr inbounds nuw %struct.anon.0, ptr %59, i32 0, i32 1
  %61 = load i64, ptr %7, align 8, !tbaa !10
  %62 = getelementptr inbounds nuw [15 x i8], ptr %60, i64 0, i64 %61
  store i8 0, ptr %62, align 1, !tbaa !8
  br label %63

63:                                               ; preds = %50, %16
  store i32 0, ptr %4, align 4
  br label %64

64:                                               ; preds = %63, %11
  %65 = load i32, ptr %4, align 4
  ret i32 %65
}